(dp0
VIP_FILTER_36-0
p1
(lp2
(iautoTestInit
keyword
p3
(dp4
S'params'
p5
(lp6
V$.CurrentApp="ip_filter";$.load("ip_filter")
p7
asS'keyword'
p8
S'Execute JavaScript'
p9
sbasVIP_FILTER_58-1
p10
g2
sVDHCP_POOL_30
p11
(lp12
(iautoTestInit
keyword
p13
(dp14
g5
(lp15
V$.CurrentApp="lan";$.load("lan")
p16
asg8
g9
sbasVDHCP_POOL_31
p17
g12
sVWAN_PPPOE_ACCOUNT_1
p18
(lp19
(iautoTestInit
keyword
p20
(dp21
g5
(lp22
V$.CurrentApp="wan";$.load("wan")
p23
asg8
g9
sba(iautoTestInit
keyword
p24
(dp25
g5
(lp26
S'conntype'
p27
aVPPPoE
p28
asg8
S'Select From List By Label'
p29
sba(iautoTestInit
keyword
p30
(dp31
g5
(lp32
S'id=show_wan_advance'
p33
asg8
S'Click Element'
p34
sbasVWAN_PPPOE_ACCOUNT_3
p35
g19
sVWAN_PPPOE_ACCOUNT_2
p36
g19
sVWAN_PPPOE_ACCOUNT_5
p37
g19
sVWAN_PPPOE_ACCOUNT_4
p38
g19
sVWAN_PPPOE_ACCOUNT_7
p39
g19
sVWAN_PPPOE_ACCOUNT_6
p40
g19
sVIPMAC_BING_IP_9
p41
(lp42
(iautoTestInit
keyword
p43
(dp44
g5
(lp45
V$.CurrentApp="binds";$.load("binds")
p46
asg8
g9
sbasVIPMAC_BING_IP_8
p47
g42
sVIPMAC_BING_IP_5
p48
g42
sVIPMAC_BING_IP_4
p49
g42
sVIPMAC_BING_IP_7
p50
g42
sVIPMAC_BING_IP_6
p51
g42
sVIPMAC_BING_IP_1
p52
g42
sVIPMAC_BING_IP_3
p53
g42
sVIPMAC_BING_IP_2
p54
g42
sVWAN_PPPOE_DNS_33
p55
g19
sVWAN_PPPOE_DNS_32
p56
g19
sVWAN_PPPOE_DNS_31
p57
g19
sVWAN_PPPOE_DNS_30
p58
g19
sVWAN_PPPOE_DEMOND_TIME_20
p59
g19
sVWAN_PPPOE_DEMOND_TIME_21
p60
g19
sVWAN_PPPOE_DEMOND_TIME_22
p61
g19
sVWAN_PPPOE_DNS_34
p62
g19
sVIP_FILTER_33-0
p63
g2
sVWAN_PPPOE_DNS_39
p64
g19
sVWAN_PPPOE_DNS_38
p65
g19
sVIP_FILTER_25
p66
g2
sVIP_FILTER_24
p67
g2
sVIP_FILTER_21
p68
g2
sVIP_FILTER_20
p69
g2
sVIP_FILTER_23
p70
g2
sVIP_FILTER_22
p71
g2
sVIP_FILTER_34-0
p72
g2
sVWAN_STATIC_DNS_72
p73
(lp74
g20
a(iautoTestInit
keyword
p75
(dp76
g5
(lp77
g27
aVStatic IP
p78
asg8
g29
sba(iautoTestInit
keyword
p79
(dp80
g5
(lp81
g33
asg8
g34
sbasVWAN_STATIC_DNS_73
p82
g74
sVWAN_STATIC_DNS_70
p83
g74
sVWAN_STATIC_DNS_71
p84
g74
sVWAN_STATIC_DNS_76
p85
g74
sVWAN_STATIC_DNS_77
p86
g74
sVWAN_STATIC_DNS_75
p87
g74
sVWAN_STATIC_DNS_78
p88
g74
sVWAN_STATIC_DNS_79
p89
g74
sVIP_FILTER_59-1
p90
g2
sVIP_FILTER_19-1
p91
g2
sVWAN_CONF_MTU_1_3
p92
g74
sVWAN_CONF_MTU_1_2
p93
g19
sVWAN_CONF_MTU_1_1
p94
(lp95
g20
a(iautoTestInit
keyword
p96
(dp97
g5
(lp98
g27
aVDHCP(Cable Modem)
p99
asg8
g29
sba(iautoTestInit
keyword
p100
(dp101
g5
(lp102
g33
asg8
g34
sbasVWAN_STATIC_GW_38
p103
g74
sVWAN_STATIC_GW_39
p104
g74
sVWAN_STATIC_GW_32
p105
g74
sVWAN_STATIC_GW_33
p106
g74
sVWAN_STATIC_GW_36
p107
g74
sVWAN_STATIC_GW_37
p108
g74
sVWAN_STATIC_GW_34
p109
g74
sVWAN_STATIC_GW_35
p110
g74
sVIP_FILTER_63
p111
g2
sVIP_FILTER_62
p112
g2
sVIP_FILTER_105
p113
g2
sVIP_FILTER_104
p114
g2
sVIP_FILTER_100
p115
g2
sVIP_FILTER_102
p116
g2
sVLAN_CONF_MASK_40
p117
g12
sVLAN_CONF_MASK_41
p118
g12
sVLAN_CONF_MASK_42
p119
g12
sVLAN_CONF_MASK_43
p120
g12
sVIP_FILTER_18
p121
g2
sVLAN_CONF_MASK_45
p122
g12
sVLAN_CONF_MASK_46
p123
g12
sVIP_FILTER_14
p124
g2
sVIP_FILTER_15
p125
g2
sVIP_FILTER_16
p126
g2
sVIP_FILTER_17
p127
g2
sVIP_FILTER_10
p128
g2
sVIP_FILTER_11
p129
g2
sVIP_FILTER_12
p130
g2
sVIP_FILTER_13
p131
g2
sVLAN_CONF_MASK_35
p132
g12
sVLAN_CONF_MASK_34
p133
g12
sVLAN_CONF_MASK_37
p134
g12
sVLAN_CONF_MASK_36
p135
g12
sVLAN_CONF_IP_29
p136
g12
sVLAN_CONF_IP_28
p137
g12
sVLAN_CONF_MASK_33
p138
g12
sVLAN_CONF_MASK_32
p139
g12
sVLAN_CONF_IP_25
p140
g12
sVLAN_CONF_IP_24
p141
g12
sVLAN_CONF_IP_27
p142
g12
sVLAN_CONF_IP_26
p143
g12
sVLAN_CONF_IP_21
p144
g12
sVLAN_CONF_IP_20
p145
g12
sVLAN_CONF_IP_23
p146
g12
sVLAN_CONF_IP_22
p147
g12
sVWAN_STATIC_DNS_51
p148
g74
sVIP_FILTER_55
p149
g2
sVIP_FILTER_51-1
p150
g2
sVDHCP_POOL_27
p151
g12
sVDHCP_POOL_26
p152
g12
sVDHCP_POOL_25
p153
g12
sVDHCP_POOL_24
p154
g12
sVDHCP_POOL_23
p155
g12
sVDHCP_POOL_22
p156
g12
sVDHCP_POOL_21
p157
g12
sVDHCP_POOL_20
p158
g12
sVDHCP_POOL_29
p159
g12
sVDHCP_POOL_28
p160
g12
sVWAN_CONF_MAC_14
p161
g95
sVWAN_CONF_MAC_12
p162
g95
sVWAN_CONF_MAC_13
p163
g95
sVWAN_CONF_MAC_10
p164
g95
sVWAN_CONF_MAC_11
p165
g95
sVWAN_STATIC_MASK_30
p166
g74
sVWAN_STATIC_MASK_31
p167
g74
sVWAN_CONF_MTU_2_1
p168
g95
sVWAN_CONF_MTU_2_2
p169
g19
sVWAN_CONF_MTU_2_3
p170
g74
sVIP_FILTER_50
p171
g2
sVIP_FILTER_52
p172
g2
sVIP_FILTER_53
p173
g2
sVIP_FILTER_54
p174
g2
sVLAN_CONF_47
p175
g12
sVIP_FILTER_56
p176
g2
sVIP_FILTER_57
p177
g2
sVWAN_CONF_MTU_8_2
p178
g19
sVWAN_CONF_MTU_8_3
p179
g74
sVWAN_CONF_MTU_8_1
p180
g95
sVIPMAC_BING_MAC_18
p181
g42
sVIPMAC_BING_MAC_19
p182
g42
sVMAC_FILTER_37
p183
(lp184
(iautoTestInit
keyword
p185
(dp186
g5
(lp187
V$.CurrentApp="mac_filter";$.load("mac_filter")
p188
asg8
g9
sbasVMAC_FILTER_35
p189
g184
sVIP_FILTER_8
p190
g2
sVIP_FILTER_9
p191
g2
sVMAC_FILTER_31
p192
g184
sVMAC_FILTER_33
p193
g184
sVIP_FILTER_2
p194
g2
sVIP_FILTER_3
p195
g2
sVIP_FILTER_1
p196
g2
sVMAC_FILTER_39
p197
g184
sVMAC_FILTER_38
p198
g184
sVIP_FILTER_4
p199
g2
sVIPMAC_BING_MAC_16
p200
g42
sVIPMAC_BING_MAC_17
p201
g42
sVIPMAC_BING_MAC_15
p202
g42
sVIP_FILTER_96
p203
g2
sVIP_FILTER_98
p204
g2
sVWAN_PPPOE_DNS_42
p205
g19
sVWAN_PPPOE_DNS_43
p206
g19
sVWAN_PPPOE_DNS_40
p207
g19
sVWAN_PPPOE_DNS_41
p208
g19
sVWAN_PPPOE_DNS_46
p209
g19
sVWAN_PPPOE_DNS_47
p210
g19
sVWAN_PPPOE_DNS_44
p211
g19
sVWAN_PPPOE_DNS_45
p212
g19
sVWAN_PPPOE_DNS_48
p213
g19
sVWAN_PPPOE_DNS_49
p214
g19
sVWAN_DHCP_DNS_28
p215
g95
sVWAN_DHCP_DNS_29
p216
g95
sVWAN_DHCP_DNS_22
p217
g95
sVWAN_DHCP_DNS_23
p218
g95
sVWAN_DHCP_DNS_20
p219
g95
sVWAN_DHCP_DNS_21
p220
g95
sVWAN_DHCP_DNS_26
p221
g95
sVWAN_DHCP_DNS_27
p222
g95
sVWAN_DHCP_DNS_24
p223
g95
sVWAN_DHCP_DNS_25
p224
g95
sVLAN_CONF_IP_18
p225
g12
sVLAN_CONF_IP_19
p226
g12
sVIP_FILTER_29-1
p227
g2
sVLAN_CONF_IP_16
p228
g12
sVLAN_CONF_IP_17
p229
g12
sVLAN_CONF_MASK_44
p230
g12
sVWAN_PPPOE_DNS_37
p231
g19
sVWAN_PPPOE_DNS_36
p232
g19
sVWAN_PPPOE_DNS_35
p233
g19
sVIPMAC_BING_38
p234
g42
sVIPMAC_BING_39
p235
g42
sVIPMAC_BING_35
p236
g42
sVIPMAC_BING_36
p237
g42
sVIPMAC_BING_37
p238
g42
sVDHCP_POOL_1
p239
g12
sVDHCP_POOL_2
p240
g12
sVDHCP_POOL_3
p241
g12
sVDHCP_POOL_4
p242
g12
sVDHCP_POOL_5
p243
g12
sVDHCP_POOL_6
p244
g12
sVDHCP_POOL_7
p245
g12
sVDHCP_POOL_8
p246
g12
sVDHCP_POOL_9
p247
g12
sVIPMAC_BING_IP_11
p248
g42
sVIPMAC_BING_IP_10
p249
g42
sVIPMAC_BING_IP_13
p250
g42
sVIPMAC_BING_IP_12
p251
g42
sVIPMAC_BING_IP_14
p252
g42
sVDHCP_POOL_12
p253
g12
sVDHCP_POOL_13
p254
g12
sVDHCP_POOL_10
p255
g12
sVDHCP_POOL_11
p256
g12
sVDHCP_POOL_16
p257
g12
sVDHCP_POOL_17
p258
g12
sVDHCP_POOL_14
p259
g12
sVDHCP_POOL_15
p260
g12
sVLAN_CONF_MASK_39
p261
g12
sVDHCP_POOL_18
p262
g12
sVDHCP_POOL_19
p263
g12
sVLAN_CONF_MASK_38
p264
g12
sVIPMAC_BING_NAME_29
p265
g42
sVWAN_STATIC_MASK_29
p266
g74
sVWAN_STATIC_MASK_28
p267
g74
sVWAN_STATIC_MASK_25
p268
g74
sVWAN_STATIC_MASK_24
p269
g74
sVWAN_STATIC_MASK_27
p270
g74
sVWAN_STATIC_MASK_26
p271
g74
sVWAN_STATIC_MASK_21
p272
g74
sVWAN_STATIC_MASK_20
p273
g74
sVWAN_STATIC_MASK_23
p274
g74
sVWAN_STATIC_MASK_22
p275
g74
sVIP_FILTER_43
p276
g2
sVIP_FILTER_42
p277
g2
sVIP_FILTER_41
p278
g2
sVIP_FILTER_40
p279
g2
sVIP_FILTER_47
p280
g2
sVIP_FILTER_46
p281
g2
sVIP_FILTER_45
p282
g2
sVIP_FILTER_44
p283
g2
sVIP_FILTER_49
p284
g2
sVIP_FILTER_48
p285
g2
sVIP_FILTER_61-1
p286
g2
sVIP_FILTER_28-1
p287
g2
sVIP_FILTER_26-1
p288
g2
sVIPMAC_BING_MAC_23
p289
g42
sVIPMAC_BING_MAC_22
p290
g42
sVIPMAC_BING_MAC_20
p291
g42
sVIPMAC_BING_MAC_27
p292
g42
sVIPMAC_BING_MAC_26
p293
g42
sVIPMAC_BING_MAC_25
p294
g42
sVIPMAC_BING_MAC_24
p295
g42
sVWAN_DHCP_DNS_13
p296
g95
sVWAN_DHCP_DNS_12
p297
g95
sVWAN_DHCP_DNS_11
p298
g95
sVWAN_DHCP_DNS_10
p299
g95
sVWAN_DHCP_DNS_17
p300
g95
sVWAN_DHCP_DNS_16
p301
g95
sVWAN_DHCP_DNS_15
p302
g95
sVWAN_DHCP_DNS_14
p303
g95
sVWAN_DHCP_DNS_19
p304
g95
sVWAN_DHCP_DNS_18
p305
g95
sVWAN_STATIC_DNS_58
p306
g74
sVWAN_STATIC_DNS_59
p307
g74
sVWAN_STATIC_DNS_50
p308
g74
sVIP_FILTER_65-0
p309
g2
sVWAN_STATIC_DNS_52
p310
g74
sVWAN_STATIC_DNS_53
p311
g74
sVWAN_STATIC_DNS_54
p312
g74
sVWAN_STATIC_DNS_55
p313
g74
sVWAN_STATIC_DNS_56
p314
g74
sVWAN_STATIC_DNS_57
p315
g74
sVMAC_FILTER_7
p316
g184
sVMAC_FILTER_6
p317
g184
sVMAC_FILTER_5
p318
g184
sVMAC_FILTER_4
p319
g184
sVMAC_FILTER_3
p320
g184
sVMAC_FILTER_2
p321
g184
sVMAC_FILTER_1
p322
g184
sVMAC_FILTER_9
p323
g184
sVMAC_FILTER_8
p324
g184
sVWAN_STATIC_IP_3
p325
g74
sVWAN_STATIC_IP_2
p326
g74
sVWAN_STATIC_IP_1
p327
g74
sVWAN_STATIC_IP_7
p328
g74
sVWAN_STATIC_IP_6
p329
g74
sVWAN_STATIC_IP_5
p330
g74
sVWAN_STATIC_IP_4
p331
g74
sVWAN_STATIC_IP_9
p332
g74
sVWAN_STATIC_IP_8
p333
g74
sVWAN_CONF_MAC_4
p334
g95
sVWAN_CONF_MAC_5
p335
g95
sVWAN_CONF_MAC_6
p336
g95
sVWAN_CONF_MAC_1
p337
g95
sVWAN_CONF_MAC_2
p338
g95
sVWAN_CONF_MAC_3
p339
g95
sVWAN_CONF_MAC_8
p340
g95
sVWAN_CONF_MAC_9
p341
g95
sVIP_FILTER_68-0
p342
g2
sVWAN_STATIC_GW_49
p343
g74
sVWAN_STATIC_GW_48
p344
g74
sVIP_FILTER_80
p345
g2
sVWAN_STATIC_GW_43
p346
g74
sVWAN_STATIC_GW_41
p347
g74
sVWAN_STATIC_GW_40
p348
g74
sVWAN_STATIC_GW_47
p349
g74
sVWAN_STATIC_GW_46
p350
g74
sVWAN_STATIC_GW_45
p351
g74
sVWAN_STATIC_GW_44
p352
g74
sVWAN_PPPOE_DNS_51
p353
g19
sVWAN_PPPOE_DNS_50
p354
g19
sVIP_FILTER_60-1
p355
g2
sVIP_FILTER_27-1
p356
g2
sVWAN_PPPOE_DNS_23
p357
g19
sVWAN_PPPOE_DNS_24
p358
g19
sVWAN_PPPOE_DNS_25
p359
g19
sVWAN_PPPOE_DNS_26
p360
g19
sVWAN_PPPOE_DNS_27
p361
g19
sVWAN_PPPOE_DNS_28
p362
g19
sVWAN_PPPOE_DNS_29
p363
g19
sVIP_FILTER_39
p364
g2
sVIP_FILTER_30
p365
g2
sVIP_FILTER_31
p366
g2
sVIP_FILTER_64-0
p367
g2
sVIP_FILTER_67-0
p368
g2
sVWAN_PPPOE_ACCOUNT_10
p369
g19
sVWAN_DHCP_DNS_9
p370
g95
sVWAN_DHCP_DNS_8
p371
g95
sVWAN_DHCP_DNS_3
p372
g95
sVWAN_DHCP_DNS_2
p373
g95
sVWAN_DHCP_DNS_1
p374
g95
sVWAN_DHCP_DNS_7
p375
g95
sVWAN_DHCP_DNS_6
p376
g95
sVWAN_DHCP_DNS_5
p377
g95
sVWAN_DHCP_DNS_4
p378
g95
sVWAN_STATIC_DNS_61
p379
g74
sVWAN_STATIC_DNS_63
p380
g74
sVWAN_STATIC_DNS_62
p381
g74
sVWAN_STATIC_DNS_65
p382
g74
sVWAN_STATIC_DNS_64
p383
g74
sVWAN_STATIC_DNS_67
p384
g74
sVWAN_STATIC_DNS_66
p385
g74
sVWAN_STATIC_DNS_69
p386
g74
sVWAN_STATIC_DNS_68
p387
g74
sVIPMAC_BING_41
p388
g42
sVIPMAC_BING_42
p389
g42
sVWAN_STATIC_IP_16
p390
g74
sVWAN_STATIC_IP_15
p391
g74
sVWAN_STATIC_IP_14
p392
g74
sVWAN_STATIC_IP_13
p393
g74
sVWAN_STATIC_IP_12
p394
g74
sVWAN_STATIC_IP_11
p395
g74
sVWAN_STATIC_IP_10
p396
g74
sVWAN_STATIC_MASK_17
p397
g74
sVWAN_STATIC_MASK_18
p398
g74
sVWAN_STATIC_MASK_19
p399
g74
sVIPMAC_BING_NAME_32
p400
g42
sVIPMAC_BING_NAME_31
p401
g42
sVIPMAC_BING_NAME_30
p402
g42
sVIP_FILTER_78
p403
g2
sVIP_FILTER_79
p404
g2
sVIP_FILTER_76
p405
g2
sVIP_FILTER_77
p406
g2
sVIP_FILTER_74
p407
g2
sVIP_FILTER_75
p408
g2
sVIP_FILTER_72
p409
g2
sVIP_FILTER_73
p410
g2
sVIP_FILTER_71
p411
g2
sVWAN_PPPOE_DEMOND_TIME_19
p412
g19
sVWAN_PPPOE_DEMOND_TIME_18
p413
g19
sVWAN_PPPOE_DEMOND_TIME_15
p414
g19
sVWAN_PPPOE_DEMOND_TIME_14
p415
g19
sVWAN_PPPOE_DEMOND_TIME_17
p416
g19
sVWAN_PPPOE_DEMOND_TIME_16
p417
g19
sVWAN_PPPOE_DEMOND_TIME_11
p418
g19
sVWAN_PPPOE_DEMOND_TIME_13
p419
g19
sVWAN_PPPOE_DEMOND_TIME_12
p420
g19
sVWAN_CONF_MTU_5
p421
g19
sVWAN_CONF_MTU_4
p422
g95
sVWAN_CONF_MTU_3
p423
g74
sVIP_FILTER_35-0
p424
g2
sVIP_FILTER_32-0
p425
g2
sVMAC_FILTER_13
p426
g184
sVMAC_FILTER_12
p427
g184
sVMAC_FILTER_10
p428
g184
sVMAC_FILTER_17
p429
g184
sVMAC_FILTER_16
p430
g184
sVMAC_FILTER_15
p431
g184
sVMAC_FILTER_14
p432
g184
sVIP_FILTER_66-0
p433
g2
sVLAN_CONF_IP_30
p434
g12
sVLAN_CONF_IP_31
p435
g12
s.